; Function Attrs: nounwind sspstrong uwtable
define internal void @external_snapshot_commit(ptr noundef readonly captures(none) %0) #0 {
  %2 = load ptr, ptr %0, align 8
  %3 = getelementptr inbounds nuw i8, ptr %2, i64 16960
  %4 = load atomic i32, ptr %3 monotonic, align 8
  %.not = icmp eq i32 %4, 0
  br i1 %.not, label %5, label %7

5:                                                ; preds = %1
  %6 = tail call i32 @bdrv_reopen_set_read_only(ptr noundef nonnull %2, i1 noundef zeroext true, ptr noundef null) #14
  br label %7

7:                                                ; preds = %5, %1
  ret void
}